target datalayout = "e-m:e-p270:32:32-p271:32:32-p272:64:64-i64:64-i128:128-f80:128-n8:16:32:64-S128"
target triple = "x86_64-pc-linux-gnu"

; Function Attrs: nounwind uwtable
define ptr @Bac_ManInsertGia(ptr noundef %0, ptr noundef %1) #0 {
  %3 = alloca ptr, align 8
  %4 = alloca ptr, align 8
  %5 = alloca ptr, align 8
  store ptr %0, ptr %3, align 8
  store ptr %1, ptr %4, align 8
  %6 = load ptr, ptr %3, align 8
  %7 = call ptr @Bac_ManDupUserBoxes(ptr noundef %6)
  store ptr %7, ptr %5, align 8
  %8 = load ptr, ptr %3, align 8
  %9 = load ptr, ptr %4, align 8
  call void @Bac_ManMarkNodesGia(ptr noundef %8, ptr noundef %9)
  %10 = load ptr, ptr %5, align 8
  %11 = load ptr, ptr %3, align 8
  call void @Bac_ManRemapBarbufs(ptr noundef %10, ptr noundef %11)
  %12 = load ptr, ptr %5, align 8
  %13 = load ptr, ptr %4, align 8
  call void @Bac_NtkInsertGia(ptr noundef %12, ptr noundef %13)
  %14 = load ptr, ptr %5, align 8
  %15 = load ptr, ptr %3, align 8
  call void @Bac_ManMoveNames(ptr noundef %14, ptr noundef %15)
  %16 = load ptr, ptr %5, align 8
  ret ptr %16
}

; Function Attrs: nounwind uwtable
define ptr @Bac_ManBlastTest(ptr noundef %0) #0 {
  %2 = alloca ptr, align 8
  %3 = alloca ptr, align 8
  %4 = alloca ptr, align 8
  store ptr %0, ptr %2, align 8
  %5 = load ptr, ptr %2, align 8
  %6 = call ptr @Bac_ManExtract(ptr noundef %5, i32 noundef 1, i32 noundef 0)
  store ptr %6, ptr %3, align 8
  %7 = load ptr, ptr %2, align 8
  %8 = load ptr, ptr %3, align 8
  %9 = call ptr @Bac_ManInsertGia(ptr noundef %7, ptr noundef %8)
  store ptr %9, ptr %4, align 8
  %10 = load ptr, ptr %3, align 8
  call void @Gia_ManStop(ptr noundef %10)
  %11 = load ptr, ptr %4, align 8
  ret ptr %11
}