; Function Attrs: nounwind uwtable
define noundef ptr @Bac_ManBlastTest(ptr noundef captures(none) initializes((68, 72), (84, 88), (100, 104), (116, 120)) %0) local_unnamed_addr #0 {
  %2 = tail call ptr @Bac_ManExtract(ptr noundef %0, i32 noundef 1, i32 poison)
  %3 = tail call fastcc ptr @Bac_ManDupUserBoxes(ptr noundef readonly %0)
  tail call void @Bac_ManMarkNodesGia(ptr noundef readonly %0, ptr noundef %2)
  tail call void @Bac_ManRemapBarbufs(ptr noundef %3, ptr noundef readonly %0)
  tail call void @Bac_NtkInsertGia(ptr noundef %3, ptr noundef %2)
  tail call fastcc void @Bac_ManMoveNames(ptr noundef %3, ptr noundef readonly %0)
  tail call void @Gia_ManStop(ptr noundef %2) #17
  ret ptr %3
}